target datalayout = "e-m:e-p270:32:32-p271:32:32-p272:64:64-i64:64-i128:128-f80:128-n8:16:32:64-S128"
target triple = "x86_64-pc-linux-gnu"

%struct.PageHeaderData = type { %struct.PageXLogRecPtr, i16, i16, i16, i16, i16, i16, i32, [0 x %struct.ItemIdData] }
%struct.PageXLogRecPtr = type { i32, i32 }
%struct.ItemIdData = type { i32 }
%struct.BTPageOpaqueData = type { i32, i32, i32, i16, i16 }

; Function Attrs: inlinehint nounwind uwtable
define internal void @PageValidateSpecialPointer(ptr noundef %0) #2 {
  %2 = alloca ptr, align 8
  store ptr %0, ptr %2, align 8
  ret void
}

; Function Attrs: nounwind uwtable
define dso_local void @btree_mask(ptr noundef %0, i32 noundef %1) #0 {
  %3 = alloca ptr, align 8
  %4 = alloca i32, align 4
  %5 = alloca ptr, align 8
  %6 = alloca ptr, align 8
  store ptr %0, ptr %3, align 8
  store i32 %1, ptr %4, align 4
  call void @llvm.lifetime.start.p0(i64 8, ptr %5) #7
  %7 = load ptr, ptr %3, align 8
  store ptr %7, ptr %5, align 8
  call void @llvm.lifetime.start.p0(i64 8, ptr %6) #7
  %8 = load ptr, ptr %5, align 8
  call void @mask_page_lsn_and_checksum(ptr noundef %8)
  %9 = load ptr, ptr %5, align 8
  call void @mask_page_hint_bits(ptr noundef %9)
  %10 = load ptr, ptr %5, align 8
  call void @mask_unused_space(ptr noundef %10)
  %11 = load ptr, ptr %5, align 8
  call void @PageValidateSpecialPointer(ptr noundef %11)
  %12 = load ptr, ptr %5, align 8
  %13 = load ptr, ptr %5, align 8
  %14 = getelementptr inbounds nuw %struct.PageHeaderData, ptr %13, i32 0, i32 5
  %15 = load i16, ptr %14, align 4
  %16 = zext i16 %15 to i32
  %17 = sext i32 %16 to i64
  %18 = getelementptr inbounds i8, ptr %12, i64 %17
  store ptr %18, ptr %6, align 8
  %19 = load ptr, ptr %6, align 8
  %20 = getelementptr inbounds nuw %struct.BTPageOpaqueData, ptr %19, i32 0, i32 3
  %21 = load i16, ptr %20, align 4
  %22 = zext i16 %21 to i32
  %23 = and i32 %22, 1
  %24 = icmp ne i32 %23, 0
  br i1 %24, label %25, label %27

25:                                               ; preds = %2
  %26 = load ptr, ptr %5, align 8
  call void @mask_lp_flags(ptr noundef %26)
  br label %27

27:                                               ; preds = %25, %2
  %28 = load ptr, ptr %6, align 8
  %29 = getelementptr inbounds nuw %struct.BTPageOpaqueData, ptr %28, i32 0, i32 3
  %30 = load i16, ptr %29, align 4
  %31 = zext i16 %30 to i32
  %32 = and i32 %31, -65
  %33 = trunc i32 %32 to i16
  store i16 %33, ptr %29, align 4
  %34 = load ptr, ptr %6, align 8
  %35 = getelementptr inbounds nuw %struct.BTPageOpaqueData, ptr %34, i32 0, i32 3
  %36 = load i16, ptr %35, align 4
  %37 = zext i16 %36 to i32
  %38 = and i32 %37, -33
  %39 = trunc i32 %38 to i16
  store i16 %39, ptr %35, align 4
  %40 = load ptr, ptr %6, align 8
  %41 = getelementptr inbounds nuw %struct.BTPageOpaqueData, ptr %40, i32 0, i32 4
  store i16 0, ptr %41, align 2
  call void @llvm.lifetime.end.p0(i64 8, ptr %6) #7
  call void @llvm.lifetime.end.p0(i64 8, ptr %5) #7
  ret void
}