; Function Attrs: nounwind uwtable
define dso_local void @btree_mask(ptr noundef %0, i32 noundef %1) local_unnamed_addr #0 {
  tail call void @mask_page_lsn_and_checksum(ptr noundef %0) #7
  tail call void @mask_page_hint_bits(ptr noundef %0) #7
  tail call void @mask_unused_space(ptr noundef %0) #7
  %3 = getelementptr inbounds nuw i8, ptr %0, i64 16
  %4 = load i16, ptr %3, align 4
  %5 = zext i16 %4 to i64
  %6 = getelementptr inbounds nuw i8, ptr %0, i64 %5
  %7 = getelementptr inbounds nuw i8, ptr %6, i64 12
  %8 = load i16, ptr %7, align 4
  %9 = and i16 %8, 1
  %.not = icmp eq i16 %9, 0
  br i1 %.not, label %11, label %10

10:                                               ; preds = %2
  tail call void @mask_lp_flags(ptr noundef nonnull %0) #7
  %.pre = load i16, ptr %7, align 4
  br label %11

11:                                               ; preds = %10, %2
  %12 = phi i16 [ %.pre, %10 ], [ %8, %2 ]
  %13 = and i16 %12, -97
  store i16 %13, ptr %7, align 4
  %14 = getelementptr inbounds nuw i8, ptr %6, i64 14
  store i16 0, ptr %14, align 2
  ret void
}